MPASM 5.84  OBLIGATORIO - PARTE4 - NORMALIZA   11-22-2019  14:22:37         PAGE  1


LOC  OBJECT CODE     LINE SOURCE TEXT
  VALUE

                      00001 ; PIC16F887 Configuration Bit Settings
                      00002 ; Assembly source line config statements
                      00003 #include "p16f887.inc"
                      00001         LIST
                      00002 
                      00003 ;==========================================================================
                      00004 ; Build date : Mar 17 2019
                      00005 ;  MPASM PIC16F887 processor include
                      00006 ; 
                      00007 ;  (c) Copyright 1999-2019 Microchip Technology, All rights reserved
                      00008 ;==========================================================================
                      00009 
                      00810         LIST
                      00004     
                      00005 ; Bits de configuracion
                      00006 
                      00007 ; CONFIG1
                      00008 ; __config 0xE0C2
2007   20C2           00009  __CONFIG _CONFIG1, _FOSC_HS & _WDTE_OFF & _PWRTE_ON & _MCLRE_OFF & _CP_OFF & _CPD_OFF & _BOREN_OFF & _I
                            ESO_OFF & _FCMEN_OFF & _LVP_OFF
                      00010 ; CONFIG2
                      00011 ; __config 0xFEFF
2008   3EFF           00012  __CONFIG _CONFIG2, _BOR4V_BOR21V & _WRT_OFF
                      00013 
                      00014 ; Organizacion de la memoria EEPROM.
                      00015 ; 0x30 -> Flag que indica si está¡ usado el buffer o no.
                      00016 ; 0x31 -> Puntero actual del buffer.
                      00017 ; 0x40 - 0x49 -> Buffer.
                      00018     
                      00019 ; Organizacion de la memoria de datos 
Warning[205]: Found directive in column 1. (cblock)
                      00020 cblock 0x20     ; Comienzo a escribir la memoria de datos en la direccion 0x20
                      00021 ; Definicion de variables
  00000020            00022     W_TEMP ; 0X20
  00000021            00023     STATUS_TEMP ; 0X21
  00000022            00024     CONTADOR_1 ; 0x22
  00000023            00025     CONTADOR_2 ; 0x23
  00000024            00026     CONTADOR_3 ;0x24
  00000025            00027     VALOR_CONVERSION_TEMP ; 0x25
  00000026            00028     VALOR_CONVERSION ; 0x26
  00000027            00029     VALOR_CONVERSIONH ; 0x27
  00000028            00030     VALOR_CONVERSIONL ; 0x28
  00000029            00031     VALOR_CONVERSION_MEMORIA ; 0x29
  0000002A            00032     CONTADOR_TIMER1 ; 0x2A
  0000002B            00033     SIGUIENTE_PUNTERO ; 0X2B
  0000002C            00034     PUNTERO_ACTUAL ; 0x2C
  0000002D            00035     TEMP_W ; 0x2D
  0000002E            00036     STATUS_TEMP_CASE ; 0x2E
  0000002F            00037     W_TEMP_CASE ; 0x2F
  00000030            00038     ITERADOR ; 0x30
  00000031            00039     DELAY_CONTADOR ; 0x31
  00000032            00040     DELAY_1MS_CONTADOR_1 ; 0x32
  00000033            00041     DELAY_1MS_CONTADOR_2 ; 0x33
MPASM 5.84  OBLIGATORIO - PARTE4 - NORMALIZA   11-22-2019  14:22:37         PAGE  2


LOC  OBJECT CODE     LINE SOURCE TEXT
  VALUE

  00000034            00042     MULTIPLICANDO_REGLA ; 0x34
  00000035            00043     DIVISOR_REGLA ; 0x35
  00000036            00044     REGLAE ; 0x36
  00000037            00045     REGLAF ; 0x37
  00000038            00046     VALOR_CONVERSION_REGLA ; 0x38
  00000039            00047     MULTIPLICANDO ; 0x39
  0000003A            00048     PRODH ; 0x3A
  0000003B            00049     PRODL ; 0x3B
  0000003C            00050     COCIENTE ; 0x3C
  0000003D            00051     RESTO ; 0x3D
  0000003E            00052     MULT ; 0x3E
  0000003F            00053     DIVIDENDO ; 0x3F
  00000040            00054     ASCII1 ; 0x40
  00000041            00055     ASCII2 ; 0x41
  00000042            00056     ASCII3 ; 0x42
  00000043            00057     ASCII_TEMP ; 0x43
  00000044            00058     ASCII_CONVERSION ; 0x44
                      00059 
Warning[205]: Found directive in column 1. (ENDC)
                      00060 endc
                      00061    
                      00062 ;Organizacion de la memoria de programacion
Warning[205]: Found directive in column 1. (org)
                      00063 org 0x0000
Warning[203]: Found opcode in column 1. (goto)
0000   2???           00064 goto main
                      00065 
Warning[205]: Found directive in column 1. (org)
                      00066 org 0x0004
Warning[203]: Found opcode in column 1. (goto)
0004   2???           00067 goto interrupt
                      00068 
                      00069 ;;;;;;;;;;;;;;;;;;;;;;;;;;;;; PROGRAMA PRINCIPAL ;;;;;;;;;;;;;;;;;;;;;;;;;;;;;;
                      00070         
0005                  00071 main
0005   2???           00072     call configuracion_inicial
                      00073     
0006                  00074 mainloop
0006   2???           00075     call realizar_conversion
0007   2???           00076     call leer_usart
0008   2???           00077     goto mainloop
                      00078         
                      00079 ;;;;;;;;;;;;;;;;;;;;;;;;;;;;; RUTINA DE INTERRUPCION ;;;;;;;;;;;;;;;;;;;;;;;;;;
                      00080 
0009                  00081 interrupt
0009   2???           00082     call guardar_contexto
                      00083     
000A   2???           00084     call cargar_contexto
000B   0009           00085     retfie ; interrupt
                      00086         
                      00087 ;;;;;;;;;;;;;;;;;;;;;;;;;;;;; CONFIGURACION INICIAL ;;;;;;;;;;;;;;;;;;;;;;;;;;;
                      00088 
000C                  00089 configuracion_inicial   
MPASM 5.84  OBLIGATORIO - PARTE4 - NORMALIZA   11-22-2019  14:22:37         PAGE  3


LOC  OBJECT CODE     LINE SOURCE TEXT
  VALUE

                      00090     ; Configuro las entradas de voltaje analogicas (PUERTOA).
000C   1683 1303      00091     banksel TRISA
Message[302]: Register in operand not in bank 0.  Ensure that bank bits are correct.
000E   1405           00092     bsf TRISA, 0 ; Seteo RA0 como entrada (perilla analogica)
Message[302]: Register in operand not in bank 0.  Ensure that bank bits are correct.
000F   1485           00093     bsf TRISA, 1 ; Seteo RA1 como entrada (perilla analógica)
0010   1683 1703      00094     banksel ANSEL
Message[302]: Register in operand not in bank 0.  Ensure that bank bits are correct.
0012   1408           00095     bsf ANSEL, 0 ; Seto el puerto RA0 como analogico.
Message[302]: Register in operand not in bank 0.  Ensure that bank bits are correct.
0013   1488           00096     bsf ANSEL, 1 ; Seto el puerto RA1 como analogico.
                      00097 
                      00098     ; Configuracion de la conversión analógica.
0014   1283 1303      00099     banksel ADRESH
0016   019E           00100     clrf ADRESH
0017   1683 1303      00101     banksel ADRESL
Message[302]: Register in operand not in bank 0.  Ensure that bank bits are correct.
0019   019E           00102     clrf ADRESL
001A   1683 1303      00103     banksel ADCON1
Message[302]: Register in operand not in bank 0.  Ensure that bank bits are correct.
001C   019F           00104     clrf ADCON1 ; ADFM = Left justified | VCFG1 = Vss | VCFG0 = Vdd     
                      00105     ; Configuración del reloj y encendido del conversor analogico.
001D   1283 1303      00106     banksel ADCON0 
001F   3081           00107     movlw b'10000001'
0020   009F           00108     movwf ADCON0 ; ADCS = Fosc/32 (TAD: 1.6(x10^-6)s) | ADON = ADC is enabled.
                      00109 
                      00110     ; Configuro las interrupciones.
0021   178B           00111     bsf INTCON, GIE ; Global interrupt enable bit.
0022   170B           00112     bsf INTCON, PEIE ; Pheripheral interrupt enable bit.
                      00113         
                      00114     ; Configuracion puerto serie (EUSART)
                      00115     ; Configuracion baudrate
0023   1683 1303      00116     banksel TXSTA
Message[302]: Register in operand not in bank 0.  Ensure that bank bits are correct.
0025   1518           00117     bsf TXSTA, BRGH ; BRGH = High Speed
0026   1683 1703      00118     banksel BAUDCTL
Message[302]: Register in operand not in bank 0.  Ensure that bank bits are correct.
0028   1187           00119     bcf BAUDCTL, BRG16 ; BRG16 = 8-bit Baud Rate Generator is used.
0029   1683 1303      00120     banksel SPBRGH
Message[302]: Register in operand not in bank 0.  Ensure that bank bits are correct.
002B   019A           00121     clrf SPBRGH
002C   1683 1303      00122     banksel SPBRG
002E   3081           00123     movlw d'129'        
Message[302]: Register in operand not in bank 0.  Ensure that bank bits are correct.
002F   0099           00124     movwf SPBRG ; Baudrate 9600
                      00125     ; Configuro la transmision.
0030   1683 1303      00126     banksel TXSTA
Message[302]: Register in operand not in bank 0.  Ensure that bank bits are correct.
0032   1698           00127     bsf TXSTA, TXEN  ; Transmit Enable bit = Transmit enabled
Message[302]: Register in operand not in bank 0.  Ensure that bank bits are correct.
0033   1218           00128     bcf TXSTA, SYNC  ; EUSART mode select bit = Asynchronous mode
                      00129     ; Configuro la recepcion.
0034   1283 1303      00130     banksel RCSTA
MPASM 5.84  OBLIGATORIO - PARTE4 - NORMALIZA   11-22-2019  14:22:37         PAGE  4


LOC  OBJECT CODE     LINE SOURCE TEXT
  VALUE

0036   1618           00131     bsf RCSTA, CREN  ; Continuous Recive Enable bit = Enables receiver
0037   1798           00132     bsf RCSTA, SPEN  ; Serial Port Enable bit = Serial port enabled.
                      00133 ;    banksel PIE1 
                      00134 ;    bsf PIE1, RCIE ; Configuro que se generen interrupciones con la recepción
                      00135 
0038   0008           00136     return ; configurar_puertos
                      00137 
                      00138 ;;;;;;;;;;;;;;;;;;;;;;;;;;;;; RUTINAS PROGRAMA PRINCIPAL ;;;;;;;;;;;;;;;;;;;;;;
                      00139 
0039                  00140 leer_usart
0039   1283 1303      00141     banksel PIR1
003B   1E8C           00142     btfss PIR1, RCIF ; Interrupcion usart?
003C   2???           00143     goto $+3
003D   2???           00144     goto interrupt_usart
Warning[207]: Found label after column 1. (leer_usart1)
003E                  00145     leer_usart1
003E   128C           00146     bcf PIR1, RCIF
                      00147     
003F   0008           00148     return ; leer_usart
                      00149     
                      00150 ; Lee el contenido del puerto y dervia en un case que indica que letra se
                      00151 ; ingresó.
0040                  00152 interrupt_usart
0040   1283 1303      00153     banksel RCREG
0042   081A           00154     movf RCREG, w
0043   2???           00155     call case_letras
0044   2???           00156     goto leer_usart1 ; interrupt_usart
                      00157         
                      00158 ; Identifica que letra se leyó en el puerto USART.      
0045                  00159 case_letras
0045   3A41           00160     xorlw b'01000001' ; 0x41 = 'A' (ASCII)
0046   1903           00161     btfsc STATUS, Z
0047   2???           00162     call rutina_letra_A
                      00163     
0048   3A20           00164     xorlw b'01100001' ^ b'01000001' ; 0x61 = 'a' (ASCII)
0049   1903           00165     btfsc STATUS, Z               
004A   2???           00166     call rutina_letra_a
                      00167         
004B   0008           00168     return ; case_letras
                      00169 
                      00170 ; Rutina de letra A: Obtiene el valor actual de la conversion y la envía por
                      00171 ; el puerto usart.
004C                  00172 rutina_letra_A
004C   2???           00173     call guardar_contexto_case
                      00174 
004D   1283 1303      00175     banksel VALOR_CONVERSION
004F   0826           00176     movf VALOR_CONVERSION, w
0050   2???           00177     call enviar_conversion_usart_hexa
                      00178 
0051   2???           00179     call cargar_contexto_case
0052   0008           00180     return ; rutina_letra_A
                      00181         
                      00182 ; Obtiene el valor de la conversión en w, lo mapea y lo envía por el puerto
MPASM 5.84  OBLIGATORIO - PARTE4 - NORMALIZA   11-22-2019  14:22:37         PAGE  5


LOC  OBJECT CODE     LINE SOURCE TEXT
  VALUE

                      00183 ; usart.
0053                  00184 enviar_conversion_usart_hexa    
0053   1283 1303      00185     banksel VALOR_CONVERSION_TEMP
0055   00A5           00186     movwf VALOR_CONVERSION_TEMP
                      00187 
                      00188     ; Obtengo los valores High y Low de la conversion.
0056   39F0           00189     andlw b'11110000'
0057   1283 1303      00190     banksel VALOR_CONVERSIONH
0059   00A7           00191     movwf VALOR_CONVERSIONH
005A   0EA7           00192     swapf VALOR_CONVERSIONH, f  ; Hago swamp para cambiar de lugar y 
                      00193                                 ; tener todos en los bits menos significativos.
                      00194     
005B   1283 1303      00195     banksel VALOR_CONVERSION_TEMP
005D   0825           00196     movf VALOR_CONVERSION_TEMP, w
005E   390F           00197     andlw b'00001111'
005F   1283 1303      00198     banksel VALOR_CONVERSIONL
0061   00A8           00199     movwf VALOR_CONVERSIONL
                      00200     
0062   1283 1303      00201     banksel VALOR_CONVERSIONH
0064   0827           00202     movf VALOR_CONVERSIONH, w
0065   2???           00203     call mapear_enviar_hexa
                      00204     
                      00205     ; Mapeo y envío los valores por el puerto usart.
0066   1283 1303      00206     banksel VALOR_CONVERSIONL
0068   0828           00207     movf VALOR_CONVERSIONL, w
0069   2???           00208     call mapear_enviar_hexa    
                      00209     
006A   0008           00210     return ; enviar_conversion_usart_hexa
                      00211         
                      00212 ; Mapea el valor de w a un caracter ASCII y lo envía por el puerto USART.
006B                  00213 mapear_enviar_hexa 
006B   2???           00214     call mapear_hexa
006C   2???           00215     call enviar_w
006D   0008           00216     return ; mapear_enviar_hexa
                      00217         
                      00218 ; Envia el valor del registro w por el puerto USART.
006E                  00219 enviar_w
006E   1283 1303      00220     banksel PIR1
0070   1E0C           00221     btfss PIR1, TXIF ; Esta vacío el bus de transmisión?
0071   2???           00222     goto $-1 ; No, vuelvo a chequear hasta que esté libre.
0072   1283 1303      00223     banksel TXREG
0074   0099           00224     movwf TXREG 
0075   0008           00225     return ; enviar_w
                      00226         
                      00227 ; Mapea el valor de w a un caracter ASCII y lo guarda en w.
0076                  00228 mapear_hexa
0076   1283 1303      00229     banksel TEMP_W
0078   00AD           00230     movwf TEMP_W
0079   3C09           00231     sublw b'00001001' ; 0x09 -> 9 decimal
                      00232     ; INICIO IF
007A   1C03           00233         btfss STATUS, C
                      00234         ; THEN (w > 9)
007B   2???           00235         goto sumar_37 ; Es mayor a 9, entonces sumo 0x37 = 0011 0111
MPASM 5.84  OBLIGATORIO - PARTE4 - NORMALIZA   11-22-2019  14:22:37         PAGE  6


LOC  OBJECT CODE     LINE SOURCE TEXT
  VALUE

                      00236         ; ELSE (w <= 9)
007C   2???           00237         goto sumar_30 ; Es menor o igual 9, entonces sumo 0x30 = 0011 0000
                      00238     ; FIN IF
                      00239 
                      00240 ; Sumo 30h al valor que tengo en w.
007D                  00241 sumar_30
007D   1283 1303      00242     banksel TEMP_W
007F   082D           00243     movf TEMP_W, w
0080   3E30           00244     addlw b'00110000' ; 0x30 -> 48 decimal
0081   0008           00245     return ; mapear_hexa
                      00246 
                      00247 ; Sumo 37h al valor que tengo en w.
0082                  00248 sumar_37
0082   1283 1303      00249     banksel TEMP_W
0084   082D           00250     movf TEMP_W, w
0085   3E37           00251     addlw b'00110111' ; 0x37 -> 55 decimal
0086   0008           00252     return ; mapear_hexa
                      00253 
                      00254 ; Manda la conversion en formato decimal.
0087                  00255 rutina_letra_a
0087   2???           00256     call guardar_contexto_case
                      00257     
0088   1283 1303      00258     banksel VALOR_CONVERSION
008A   0826           00259     movf VALOR_CONVERSION, w
008B   2???           00260     call enviar_conversion_usart_dec
                      00261     
                      00262     ; Envío grados centrígrados.
008C   30BA           00263     movlw d'186' ; °
008D   2???           00264     call enviar_w
008E   3043           00265     movlw d'67' ; C
008F   2???           00266     call enviar_w    
                      00267    
0090   2???           00268     call cargar_contexto_case
                      00269     
0091   0008           00270     return ; rutina_letra_a
                      00271         
                      00272 ; Obtiene el valor de la conversion en w, lo mapea a decimal y lo envía por el
                      00273 ; puerto usart.
0092                  00274 enviar_conversion_usart_dec
0092   1283 1303      00275     banksel VALOR_CONVERSION_TEMP
0094   00A5           00276     movwf VALOR_CONVERSION_TEMP
                      00277     
0095   1283 1303      00278     banksel MULTIPLICANDO_REGLA
0097   3064           00279     movlw d'100'
0098   00B4           00280     movwf MULTIPLICANDO_REGLA
                      00281     
0099   1283 1303      00282     banksel DIVISOR_REGLA
009B   30FF           00283     movlw d'255'
009C   00B5           00284     movwf DIVISOR_REGLA
                      00285  
009D   1283 1303      00286     banksel VALOR_CONVERSION_TEMP
009F   0825           00287     movf VALOR_CONVERSION_TEMP, w
                      00288     
MPASM 5.84  OBLIGATORIO - PARTE4 - NORMALIZA   11-22-2019  14:22:37         PAGE  7


LOC  OBJECT CODE     LINE SOURCE TEXT
  VALUE

00A0   2???           00289     call regla_de_tres
                      00290     
00A1   1283 1303      00291     banksel REGLAE
00A3   0836           00292     movf REGLAE, w
00A4   2???           00293     call mapear_enviar_dec
                      00294     
00A5   0008           00295     return ; enviar_conversion_usart_dec
                      00296 
                      00297 ; Realiza una regla de tres.
                      00298 ; w = w*MULTIPLICANDO_REGLA/DIVISOR_REGLA
00A6                  00299 regla_de_tres
00A6   1283 1303      00300     banksel VALOR_CONVERSION_REGLA
00A8   00B8           00301     movwf VALOR_CONVERSION_REGLA
00A9   0834           00302     movf MULTIPLICANDO_REGLA, w
00AA   00B9           00303     movwf MULTIPLICANDO
00AB   0838           00304     movf VALOR_CONVERSION_REGLA, w
00AC   2???           00305     call multiplicar
                      00306     
                      00307     ; Si la multiplicación dio 0, devuelvo 0.
00AD   1283 1303      00308     banksel PRODH
00AF   08BA           00309     movf PRODH, f
                      00310     ; INICIO IF
00B0   1D03           00311         btfss STATUS, Z
                      00312         ; THEN (PRODH <> 0)
00B1   2???           00313         goto $+7
                      00314         ; ELSE (PRODH = 0)
00B2   1283 1303      00315         banksel PRODL
00B4   08BB           00316         movf PRODL, f
                      00317         ; INICIO IF
00B5   1D03           00318             btfss STATUS, Z
                      00319             ; THEN (PRODL <> 0)
00B6   2???           00320             goto $+2
                      00321             ; ELSE (PRODL = 0)
00B7   3400           00322             retlw 0 ; Si es 0 el producto, devuelvo 0 porque no puedo dividir.
                      00323         ; FIN IF
                      00324     ; FIN IF
                      00325     
                      00326     ; LOS PARAMETROS DE dividir YA ESTAN CARGADOS, CARGO SOLO w.
00B8   1283 1303      00327     banksel DIVISOR_REGLA
00BA   0835           00328     movf DIVISOR_REGLA, w
00BB   2???           00329     call dividir
                      00330     
00BC   1283 1303      00331     banksel COCIENTE
00BE   083C           00332     movf COCIENTE, w
00BF   00B6           00333     movwf REGLAE
00C0   083D           00334     movf RESTO, w
00C1   00B7           00335     movwf REGLAF    
                      00336     
00C2   0008           00337     return ; regla_de_tres
                      00338 
                      00339 ; Multiplica dos numeros.
                      00340 ; MULTIPLICANDO * w = PRODH:PRODL
00C3                  00341 multiplicar
MPASM 5.84  OBLIGATORIO - PARTE4 - NORMALIZA   11-22-2019  14:22:37         PAGE  8


LOC  OBJECT CODE     LINE SOURCE TEXT
  VALUE

00C3   1283 1303      00342     banksel MULT
00C5   00BE           00343     movwf MULT
                      00344     
                      00345     ; Limpio los resultados.
00C6   1283 1303      00346     banksel PRODL
00C8   01BB           00347     clrf PRODL
00C9   01BA           00348     clrf PRODH
                      00349     
00CA   1283 1303      00350     banksel MULTIPLICANDO
00CC   08B9           00351     movf MULTIPLICANDO, f
                      00352     ; INICIO IF
00CD   1903           00353         btfsc STATUS, Z
                      00354         ; THEN (MULTIPLICANDO = 0)
00CE   0008           00355         return
                      00356         ; ELSE (MULTIPLICANDO <> 0)
Warning[207]: Found label after column 1. (multiplicar_loop)
00CF                  00357         multiplicar_loop
00CF   1283 1303      00358             banksel MULT
00D1   083E           00359             movf MULT, w
00D2   1283 1303      00360             banksel PRODL
00D4   07BB           00361             addwf PRODL, f
00D5   1803           00362             btfsc STATUS, C
00D6   0ABA           00363             incf PRODH, f
00D7   0BB9           00364             decfsz MULTIPLICANDO, f
00D8   2???           00365             goto multiplicar_loop           
                      00366     ; FIN IF
00D9   0008           00367     return ; multiplicar
                      00368 
                      00369 ; Divide dos numeros.
                      00370 ; PRODH:PRODL/w = w*COCIENTE + RESTO
00DA                  00371 dividir
00DA   1283 1303      00372     banksel COCIENTE
00DC   01BC           00373     clrf COCIENTE
00DD   01BD           00374     clrf RESTO
00DE   00BF           00375     movwf DIVIDENDO
                      00376     
Warning[207]: Found label after column 1. (loop_dividir)
00DF                  00377     loop_dividir
00DF   1283 1303      00378         banksel PRODH
00E1   08BA           00379         movf PRODH, f
                      00380         ; INICIO IF
00E2   1D03           00381             btfss STATUS, Z
                      00382             ; THEN (PRODH <> 0)
00E3   2???           00383             goto restar_dividir
                      00384             ; ELSE (PRODH = 0)
00E4   083F           00385             movf DIVIDENDO, w
00E5   023B           00386             subwf PRODL, w
                      00387             ; INICIO IF
00E6   1803           00388                 btfsc STATUS, C
                      00389                 ; THEN (PRODL >= DIVIDENDO)
00E7   2???           00390                 goto restar_dividir
                      00391                 ; ELSE (PRODL < DIVIDENDO)
00E8   083B           00392                 movf PRODL, w
MPASM 5.84  OBLIGATORIO - PARTE4 - NORMALIZA   11-22-2019  14:22:37         PAGE  9


LOC  OBJECT CODE     LINE SOURCE TEXT
  VALUE

00E9   00BD           00393                 movwf RESTO
00EA   0008           00394                 return ; dividir
                      00395             ; FIN IF
                      00396         ; FIN IF
                      00397         
Warning[207]: Found label after column 1. (restar_dividir)
00EB                  00398         restar_dividir
00EB   1283 1303      00399             banksel COCIENTE
00ED   0ABC           00400             incf COCIENTE, f
                      00401             
00EE   083F           00402             movf DIVIDENDO, w
00EF   02BB           00403             subwf PRODL, f
                      00404             ; INICIO IF
00F0   1803           00405                 btfsc STATUS, C
                      00406                 ; THEN (PRODL < DIVIDENDO)
00F1   2???           00407                 goto $+2
                      00408                 ; ELSE (PRODL >= DIVIDENDO)
00F2   03BA           00409                 decf PRODH, f
00F3   2???           00410             goto loop_dividir
                      00411 
                      00412 ; Mapea y envía un valor decimal por el puerto usart.
00F4                  00413 mapear_enviar_dec
00F4   2???           00414     call convertir_dec_ascii
                      00415     
00F5   1283 1303      00416     banksel ASCII1
00F7   0840           00417     movf ASCII1, w
00F8   2???           00418     call enviar_w
                      00419     
00F9   1283 1303      00420     banksel ASCII2
00FB   0841           00421     movf ASCII2, w
00FC   2???           00422     call enviar_w
                      00423     
00FD   1283 1303      00424     banksel ASCII3
00FF   0842           00425     movf ASCII3, w
0100   2???           00426     call enviar_w   
                      00427     
0101   0008           00428     return ; mapear_enviar_dec
                      00429 
                      00430 ; Convierte el valor numerico de w en ASCII.
                      00431 ; w = ASCII3 ASCII2 ASCII1
0102                  00432 convertir_dec_ascii    
0102   2???           00433     call convertir_valor_dec
0103   1283 1303      00434     banksel ASCII_TEMP
0105   00C3           00435     movwf ASCII_TEMP
0106   0844           00436     movf ASCII_CONVERSION, w
0107   00C2           00437     movwf ASCII3 ; Almaceno el resultado
                      00438     
0108   0843           00439     movf ASCII_TEMP, w
0109   2???           00440     call convertir_valor_dec
010A   1283 1303      00441     banksel ASCII_TEMP
010C   00C3           00442     movwf ASCII_TEMP
010D   0844           00443     movf ASCII_CONVERSION, w
010E   00C1           00444     movwf ASCII2 ; Almaceno el resultado
MPASM 5.84  OBLIGATORIO - PARTE4 - NORMALIZA   11-22-2019  14:22:37         PAGE 10


LOC  OBJECT CODE     LINE SOURCE TEXT
  VALUE

                      00445     
010F   0843           00446     movf ASCII_TEMP, w
0110   2???           00447     call convertir_valor_dec
0111   1283 1303      00448     banksel ASCII_TEMP
0113   00C3           00449     movwf ASCII_TEMP
0114   0844           00450     movf ASCII_CONVERSION, w
0115   00C0           00451     movwf ASCII1 ; Almaceno el resultado
                      00452     
0116   0008           00453     return ; convertir_dec_ascii
                      00454    
                      00455 ; Convierte solo una parte del valor en w.
                      00456 ; ASCII_CONVERSION = w MOD DIVISOR
                      00457 ; w = w/DIVISOR
0117                  00458 convertir_valor_dec
0117   1283 1303      00459     banksel PRODL
0119   00BB           00460     movwf PRODL
011A   300A           00461     movlw d'10'
011B   2???           00462     call dividir
                      00463     
011C   1283 1303      00464     banksel RESTO
011E   083D           00465     movf RESTO, w    
011F   3E30           00466     addlw b'00110000' ; Sumo 30.
0120   00C4           00467     movwf ASCII_CONVERSION ; Almaceno el resultado
                      00468     
0121   1283 1303      00469     banksel COCIENTE
0123   083C           00470     movf COCIENTE, w
                      00471     
0124   0008           00472     return ; convertir_valor_dec
                      00473     
                      00474 ; Realiza la conversion y almacena los valores en variables.
0125                  00475 realizar_conversion
0125   149F           00476     bsf ADCON0, GO ; Start conversion
0126   189F           00477     btfsc ADCON0, GO ; Is conversion done?
0127   2???           00478     goto $-1 ; No, test again
                      00479         
                      00480     ; Obtener el valor de la conversión.
0128   1283 1303      00481     banksel ADRESH
012A   081E           00482     movf ADRESH, w
012B   1283 1303      00483     banksel VALOR_CONVERSION
012D   00A6           00484     movwf VALOR_CONVERSION
                      00485         
012E   0008           00486     return ; realizar_conversion
                      00487 
                      00488 ; Rutinas de contexto.
012F                  00489 guardar_contexto
012F   1283 1303      00490     banksel W_TEMP
0131   00A0           00491     movwf W_TEMP  ; Guardo w.
0132   0E03           00492     swapf STATUS, w ; Swap status en w.
0133   00A1           00493     movwf STATUS_TEMP ; Guardo STATUS.
0134   0008           00494     return ; guardar_contexto
                      00495         
0135                  00496 guardar_contexto_case
0135   1283 1303      00497     banksel W_TEMP_CASE
MPASM 5.84  OBLIGATORIO - PARTE4 - NORMALIZA   11-22-2019  14:22:37         PAGE 11


LOC  OBJECT CODE     LINE SOURCE TEXT
  VALUE

0137   00AF           00498     movwf W_TEMP_CASE  ; Guardo w.
0138   0E03           00499     swapf STATUS, w ; Swap status en w.
0139   00AE           00500     movwf STATUS_TEMP_CASE ; Guardo STATUS.
                      00501 
013A   0008           00502     return ; guardar_contexto_case
                      00503     
013B                  00504 cargar_contexto
013B   1283 1303      00505     banksel STATUS_TEMP
013D   0E21           00506     swapf STATUS_TEMP, w
013E   0083           00507     movwf STATUS
013F   0EA0           00508     swapf W_TEMP, f
0140   0E20           00509     swapf W_TEMP, w
0141   0008           00510     return ; cargar_contexto
                      00511         
0142                  00512 cargar_contexto_case
0142   1283 1303      00513     banksel STATUS_TEMP_CASE
0144   0E2E           00514     swapf STATUS_TEMP_CASE, w
0145   0083           00515     movwf STATUS
0146   0EAF           00516     swapf W_TEMP_CASE, f
0147   0E2F           00517     swapf W_TEMP_CASE, w
                      00518 
0148   0008           00519     return ; cargar_contexto_case
                      00520 
Warning[205]: Found directive in column 1. (end)
20C2 3EFF             00521 end
MPASM 5.84  OBLIGATORIO - PARTE4 - NORMALIZA   11-22-2019  14:22:37         PAGE 12


SYMBOL TABLE
  LABEL                             VALUE 

ABDEN                             00000000
ABDOVF                            00000007
ACKDT                             00000005
ACKEN                             00000004
ACKSTAT                           00000006
ADCON0                            0000001F
ADCON1                            0000009F
ADCS0                             00000006
ADCS1                             00000007
ADDEN                             00000003
ADFM                              00000007
ADIE                              00000006
ADIF                              00000006
ADON                              00000000
ADRESH                            0000001E
ADRESL                            0000009E
ANS0                              00000000
ANS1                              00000001
ANS10                             00000002
ANS11                             00000003
ANS12                             00000004
ANS13                             00000005
ANS2                              00000002
ANS3                              00000003
ANS4                              00000004
ANS5                              00000005
ANS6                              00000006
ANS7                              00000007
ANS8                              00000000
ANS9                              00000001
ANSEL                             00000188
ANSELH                            00000189
ASCII1                            00000040
ASCII2                            00000041
ASCII3                            00000042
ASCII_CONVERSION                  00000044
ASCII_TEMP                        00000043
BAUDCTL                           00000187
BCLIE                             00000003
BCLIF                             00000003
BF                                00000000
BRG0                              00000000
BRG1                              00000001
BRG10                             00000002
BRG11                             00000003
BRG12                             00000004
BRG13                             00000005
BRG14                             00000006
BRG15                             00000007
BRG16                             00000003
BRG2                              00000002
BRG3                              00000003
BRG4                              00000004
MPASM 5.84  OBLIGATORIO - PARTE4 - NORMALIZA   11-22-2019  14:22:37         PAGE 13


SYMBOL TABLE
  LABEL                             VALUE 

BRG5                              00000005
BRG6                              00000006
BRG7                              00000007
BRG8                              00000000
BRG9                              00000001
BRGH                              00000002
C                                 00000000
C1CH0                             00000000
C1CH1                             00000001
C1IE                              00000005
C1IF                              00000005
C1OE                              00000005
C1ON                              00000007
C1OUT                             00000006
C1POL                             00000004
C1R                               00000002
C1RSEL                            00000005
C1SEN                             00000005
C2CH0                             00000000
C2CH1                             00000001
C2IE                              00000006
C2IF                              00000006
C2OE                              00000005
C2ON                              00000007
C2OUT                             00000006
C2POL                             00000004
C2R                               00000002
C2REN                             00000004
C2RSEL                            00000004
C2SYNC                            00000000
CCP1CON                           00000017
CCP1IE                            00000002
CCP1IF                            00000002
CCP1M0                            00000000
CCP1M1                            00000001
CCP1M2                            00000002
CCP1M3                            00000003
CCP1X                             00000005
CCP1Y                             00000004
CCP2CON                           0000001D
CCP2IE                            00000000
CCP2IF                            00000000
CCP2M0                            00000000
CCP2M1                            00000001
CCP2M2                            00000002
CCP2M3                            00000003
CCP2X                             00000005
CCP2Y                             00000004
CCPR1                             00000015
CCPR1H                            00000016
CCPR1L                            00000015
CCPR2                             0000001B
CCPR2H                            0000001C
MPASM 5.84  OBLIGATORIO - PARTE4 - NORMALIZA   11-22-2019  14:22:37         PAGE 14


SYMBOL TABLE
  LABEL                             VALUE 

CCPR2L                            0000001B
CHS0                              00000002
CHS1                              00000003
CHS2                              00000004
CHS3                              00000005
CKE                               00000006
CKP                               00000004
CM1CON0                           00000107
CM2CON0                           00000108
CM2CON1                           00000109
COCIENTE                          0000003C
CONTADOR_1                        00000022
CONTADOR_2                        00000023
CONTADOR_3                        00000024
CONTADOR_TIMER1                   0000002A
CREN                              00000004
CSRC                              00000007
D                                 00000005
DATA_ADDRESS                      00000005
DC                                00000001
DC1B0                             00000004
DC1B1                             00000005
DC2B0                             00000004
DC2B1                             00000005
DELAY_1MS_CONTADOR_1              00000032
DELAY_1MS_CONTADOR_2              00000033
DELAY_CONTADOR                    00000031
DIVIDENDO                         0000003F
DIVISOR_REGLA                     00000035
D_A                               00000005
D_NOT_A                           00000005
ECCPAS                            0000009C
ECCPAS0                           00000004
ECCPAS1                           00000005
ECCPAS2                           00000006
ECCPASE                           00000007
EEADR                             0000010D
EEADRH                            0000010F
EECON1                            0000018C
EECON2                            0000018D
EEDAT                             0000010C
EEDATA                            0000010C
EEDATH                            0000010E
EEIE                              00000004
EEIF                              00000004
EEPGD                             00000007
F                                 00000001
FERR                              00000002
FSR                               00000004
FVREN                             00000000
GCEN                              00000007
GIE                               00000007
GO                                00000001
MPASM 5.84  OBLIGATORIO - PARTE4 - NORMALIZA   11-22-2019  14:22:37         PAGE 15


SYMBOL TABLE
  LABEL                             VALUE 

GO_DONE                           00000001
GO_NOT_DONE                       00000001
HTS                               00000002
I2C_DATA                          00000005
I2C_READ                          00000002
I2C_START                         00000003
I2C_STOP                          00000004
INDF                              00000000
INTCON                            0000000B
INTE                              00000004
INTEDG                            00000006
INTF                              00000001
IOCB                              00000096
IOCB0                             00000000
IOCB1                             00000001
IOCB2                             00000002
IOCB3                             00000003
IOCB4                             00000004
IOCB5                             00000005
IOCB6                             00000006
IOCB7                             00000007
IRCF0                             00000004
IRCF1                             00000005
IRCF2                             00000006
IRP                               00000007
ITERADOR                          00000030
LTS                               00000001
MC1OUT                            00000007
MC2OUT                            00000006
MSK                               00000093
MSK0                              00000000
MSK1                              00000001
MSK2                              00000002
MSK3                              00000003
MSK4                              00000004
MSK5                              00000005
MSK6                              00000006
MSK7                              00000007
MULT                              0000003E
MULTIPLICANDO                     00000039
MULTIPLICANDO_REGLA               00000034
NOT_A                             00000005
NOT_ADDRESS                       00000005
NOT_BO                            00000000
NOT_BOR                           00000000
NOT_DONE                          00000001
NOT_PD                            00000003
NOT_POR                           00000001
NOT_RBPU                          00000007
NOT_RC8                           00000006
NOT_T1SYNC                        00000002
NOT_TO                            00000004
NOT_TX8                           00000006
MPASM 5.84  OBLIGATORIO - PARTE4 - NORMALIZA   11-22-2019  14:22:37         PAGE 16


SYMBOL TABLE
  LABEL                             VALUE 

NOT_W                             00000002
NOT_WRITE                         00000002
OERR                              00000001
OPTION_REG                        00000081
OSCCON                            0000008F
OSCTUNE                           00000090
OSFIE                             00000007
OSFIF                             00000007
OSTS                              00000003
P                                 00000004
P1M0                              00000006
P1M1                              00000007
PCL                               00000002
PCLATH                            0000000A
PCON                              0000008E
PDC0                              00000000
PDC1                              00000001
PDC2                              00000002
PDC3                              00000003
PDC4                              00000004
PDC5                              00000005
PDC6                              00000006
PEIE                              00000006
PEN                               00000002
PIE1                              0000008C
PIE2                              0000008D
PIR1                              0000000C
PIR2                              0000000D
PORTA                             00000005
PORTB                             00000006
PORTC                             00000007
PORTD                             00000008
PORTE                             00000009
PR2                               00000092
PRODH                             0000003A
PRODL                             0000003B
PRSEN                             00000007
PS0                               00000000
PS1                               00000001
PS2                               00000002
PSA                               00000003
PSSAC0                            00000002
PSSAC1                            00000003
PSSBD0                            00000000
PSSBD1                            00000001
PSTRCON                           0000009D
PULSR                             00000002
PULSS                             00000003
PUNTERO_ACTUAL                    0000002C
PWM1CON                           0000009B
R                                 00000002
RA0                               00000000
RA1                               00000001
MPASM 5.84  OBLIGATORIO - PARTE4 - NORMALIZA   11-22-2019  14:22:37         PAGE 17


SYMBOL TABLE
  LABEL                             VALUE 

RA2                               00000002
RA3                               00000003
RA4                               00000004
RA5                               00000005
RA6                               00000006
RA7                               00000007
RB0                               00000000
RB1                               00000001
RB2                               00000002
RB3                               00000003
RB4                               00000004
RB5                               00000005
RB6                               00000006
RB7                               00000007
RBIE                              00000003
RBIF                              00000000
RC0                               00000000
RC1                               00000001
RC2                               00000002
RC3                               00000003
RC4                               00000004
RC5                               00000005
RC6                               00000006
RC7                               00000007
RC8_9                             00000006
RC9                               00000006
RCD8                              00000000
RCEN                              00000003
RCIDL                             00000006
RCIE                              00000005
RCIF                              00000005
RCREG                             0000001A
RCSTA                             00000018
RD                                00000000
RD0                               00000000
RD1                               00000001
RD2                               00000002
RD3                               00000003
RD4                               00000004
RD5                               00000005
RD6                               00000006
RD7                               00000007
RE0                               00000000
RE1                               00000001
RE2                               00000002
RE3                               00000003
READ_WRITE                        00000002
REGLAE                            00000036
REGLAF                            00000037
RESTO                             0000003D
RP0                               00000005
RP1                               00000006
RSEN                              00000001
MPASM 5.84  OBLIGATORIO - PARTE4 - NORMALIZA   11-22-2019  14:22:37         PAGE 18


SYMBOL TABLE
  LABEL                             VALUE 

RX9                               00000006
RX9D                              00000000
R_NOT_W                           00000002
R_W                               00000002
S                                 00000003
SBOREN                            00000004
SCKP                              00000004
SCS                               00000000
SEN                               00000000
SENDB                             00000003
SIGUIENTE_PUNTERO                 0000002B
SMP                               00000007
SPBRG                             00000099
SPBRGH                            0000009A
SPEN                              00000007
SR0                               00000006
SR1                               00000007
SRCON                             00000185
SREN                              00000005
SSPADD                            00000093
SSPBUF                            00000013
SSPCON                            00000014
SSPCON2                           00000091
SSPEN                             00000005
SSPIE                             00000003
SSPIF                             00000003
SSPM0                             00000000
SSPM1                             00000001
SSPM2                             00000002
SSPM3                             00000003
SSPMSK                            00000093
SSPOV                             00000006
SSPSTAT                           00000094
STATUS                            00000003
STATUS_TEMP                       00000021
STATUS_TEMP_CASE                  0000002E
STRA                              00000000
STRB                              00000001
STRC                              00000002
STRD                              00000003
STRSYNC                           00000004
SWDTEN                            00000000
SYNC                              00000004
T0CS                              00000005
T0IE                              00000005
T0IF                              00000002
T0SE                              00000004
T1CKPS0                           00000004
T1CKPS1                           00000005
T1CON                             00000010
T1GINV                            00000007
T1GIV                             00000007
T1GSS                             00000001
MPASM 5.84  OBLIGATORIO - PARTE4 - NORMALIZA   11-22-2019  14:22:37         PAGE 19


SYMBOL TABLE
  LABEL                             VALUE 

T1INSYNC                          00000002
T1OSCEN                           00000003
T1SYNC                            00000002
T2CKPS0                           00000000
T2CKPS1                           00000001
T2CON                             00000012
TEMP_W                            0000002D
TMR0                              00000001
TMR0IE                            00000005
TMR0IF                            00000002
TMR1                              0000000E
TMR1CS                            00000001
TMR1GE                            00000006
TMR1H                             0000000F
TMR1IE                            00000000
TMR1IF                            00000000
TMR1L                             0000000E
TMR1ON                            00000000
TMR2                              00000011
TMR2IE                            00000001
TMR2IF                            00000001
TMR2ON                            00000002
TOUTPS0                           00000003
TOUTPS1                           00000004
TOUTPS2                           00000005
TOUTPS3                           00000006
TRISA                             00000085
TRISA0                            00000000
TRISA1                            00000001
TRISA2                            00000002
TRISA3                            00000003
TRISA4                            00000004
TRISA5                            00000005
TRISA6                            00000006
TRISA7                            00000007
TRISB                             00000086
TRISB0                            00000000
TRISB1                            00000001
TRISB2                            00000002
TRISB3                            00000003
TRISB4                            00000004
TRISB5                            00000005
TRISB6                            00000006
TRISB7                            00000007
TRISC                             00000087
TRISC0                            00000000
TRISC1                            00000001
TRISC2                            00000002
TRISC3                            00000003
TRISC4                            00000004
TRISC5                            00000005
TRISC6                            00000006
TRISC7                            00000007
MPASM 5.84  OBLIGATORIO - PARTE4 - NORMALIZA   11-22-2019  14:22:37         PAGE 20


SYMBOL TABLE
  LABEL                             VALUE 

TRISD                             00000088
TRISD0                            00000000
TRISD1                            00000001
TRISD2                            00000002
TRISD3                            00000003
TRISD4                            00000004
TRISD5                            00000005
TRISD6                            00000006
TRISD7                            00000007
TRISE                             00000089
TRISE0                            00000000
TRISE1                            00000001
TRISE2                            00000002
TRISE3                            00000003
TRMT                              00000001
TUN0                              00000000
TUN1                              00000001
TUN2                              00000002
TUN3                              00000003
TUN4                              00000004
TX8_9                             00000006
TX9                               00000006
TX9D                              00000000
TXD8                              00000000
TXEN                              00000005
TXIE                              00000004
TXIF                              00000004
TXREG                             00000019
TXSTA                             00000098
UA                                00000001
ULPWUE                            00000005
ULPWUIE                           00000002
ULPWUIF                           00000002
VALOR_CONVERSION                  00000026
VALOR_CONVERSIONH                 00000027
VALOR_CONVERSIONL                 00000028
VALOR_CONVERSION_MEMORIA          00000029
VALOR_CONVERSION_REGLA            00000038
VALOR_CONVERSION_TEMP             00000025
VCFG0                             00000004
VCFG1                             00000005
VR0                               00000000
VR1                               00000001
VR2                               00000002
VR3                               00000003
VRCON                             00000097
VREN                              00000007
VROE                              00000006
VRR                               00000005
VRSS                              00000004
W                                 00000000
WCOL                              00000007
WDTCON                            00000105
MPASM 5.84  OBLIGATORIO - PARTE4 - NORMALIZA   11-22-2019  14:22:37         PAGE 21


SYMBOL TABLE
  LABEL                             VALUE 

WDTPS0                            00000001
WDTPS1                            00000002
WDTPS2                            00000003
WDTPS3                            00000004
WPUB                              00000095
WPUB0                             00000000
WPUB1                             00000001
WPUB2                             00000002
WPUB3                             00000003
WPUB4                             00000004
WPUB5                             00000005
WPUB6                             00000006
WPUB7                             00000007
WR                                00000001
WREN                              00000002
WRERR                             00000003
WUE                               00000001
W_TEMP                            00000020
W_TEMP_CASE                       0000002F
Z                                 00000002
_.org_1_003C                      0000003C
_.org_1_0071                      00000071
_.org_1_00B1                      000000B1
_.org_1_00B6                      000000B6
_.org_1_00F1                      000000F1
_.org_1_0127                      00000127
_BOR21V                           00003EFF
_BOR40V                           00003FFF
_BOR4V_BOR21V                     00003EFF
_BOR4V_BOR40V                     00003FFF
_BOREN_NSLEEP                     00003EFF
_BOREN_OFF                        00003CFF
_BOREN_ON                         00003FFF
_BOREN_SBODEN                     00003DFF
_BOR_NSLEEP                       00003EFF
_BOR_OFF                          00003CFF
_BOR_ON                           00003FFF
_BOR_SBODEN                       00003DFF
_CONFIG1                          00002007
_CONFIG2                          00002008
_CPD_OFF                          00003FFF
_CPD_ON                           00003F7F
_CP_OFF                           00003FFF
_CP_ON                            00003FBF
_DEBUG_OFF                        00003FFF
_DEBUG_ON                         00001FFF
_DEVID1                           00002006
_EC_OSC                           00003FFB
_EXTRC                            00003FFF
_EXTRCIO                          00003FFE
_EXTRC_OSC_CLKOUT                 00003FFF
_EXTRC_OSC_NOCLKOUT               00003FFE
_FCMEN_OFF                        000037FF
MPASM 5.84  OBLIGATORIO - PARTE4 - NORMALIZA   11-22-2019  14:22:37         PAGE 22


SYMBOL TABLE
  LABEL                             VALUE 

_FCMEN_ON                         00003FFF
_FOSC_EC                          00003FFB
_FOSC_EXTRC_CLKOUT                00003FFF
_FOSC_EXTRC_NOCLKOUT              00003FFE
_FOSC_HS                          00003FFA
_FOSC_INTRC_CLKOUT                00003FFD
_FOSC_INTRC_NOCLKOUT              00003FFC
_FOSC_LP                          00003FF8
_FOSC_XT                          00003FF9
_HS_OSC                           00003FFA
_IDLOC0                           00002000
_IDLOC1                           00002001
_IDLOC2                           00002002
_IDLOC3                           00002003
_IESO_OFF                         00003BFF
_IESO_ON                          00003FFF
_INTOSC                           00003FFD
_INTOSCIO                         00003FFC
_INTRC_OSC_CLKOUT                 00003FFD
_INTRC_OSC_NOCLKOUT               00003FFC
_LP_OSC                           00003FF8
_LVP_OFF                          00002FFF
_LVP_ON                           00003FFF
_MCLRE_OFF                        00003FDF
_MCLRE_ON                         00003FFF
_PWRTE_OFF                        00003FFF
_PWRTE_ON                         00003FEF
_WDTE_OFF                         00003FF7
_WDTE_ON                          00003FFF
_WDT_OFF                          00003FF7
_WDT_ON                           00003FFF
_WRT_1FOURTH                      00003BFF
_WRT_256                          00003DFF
_WRT_HALF                         000039FF
_WRT_OFF                          00003FFF
_XT_OSC                           00003FF9
__16F887                          00000001
cargar_contexto                   0000013B
cargar_contexto_case              00000142
case_letras                       00000045
configuracion_inicial             0000000C
convertir_dec_ascii               00000102
convertir_valor_dec               00000117
dividir                           000000DA
enviar_conversion_usart_dec       00000092
enviar_conversion_usart_hexa      00000053
enviar_w                          0000006E
guardar_contexto                  0000012F
guardar_contexto_case             00000135
interrupt                         00000009
interrupt_usart                   00000040
leer_usart                        00000039
leer_usart1                       0000003E
MPASM 5.84  OBLIGATORIO - PARTE4 - NORMALIZA   11-22-2019  14:22:37         PAGE 23


SYMBOL TABLE
  LABEL                             VALUE 

loop_dividir                      000000DF
main                              00000005
mainloop                          00000006
mapear_enviar_dec                 000000F4
mapear_enviar_hexa                0000006B
mapear_hexa                       00000076
multiplicar                       000000C3
multiplicar_loop                  000000CF
realizar_conversion               00000125
regla_de_tres                     000000A6
restar_dividir                    000000EB
rutina_letra_A                    0000004C
rutina_letra_a                    00000087
sumar_30                          0000007D
sumar_37                          00000082

Errors   :     0
Warnings :    11 reported,     0 suppressed
Messages :    12 reported,     0 suppressed

