MPLINK 5.09, LINKER
Linker Map File - Created Fri Nov 22 19:01:18 2019

                                 Section Info
                  Section       Type    Address   Location Size(Bytes)
                ---------  ---------  ---------  ---------  ---------
                   .org_0       code   0x000000    program   0x000002
                   .cinit    romdata   0x000001    program   0x000004
                   .org_1       code   0x000004    program   0x00022e
                    dbgP0       code   0x001f00    program   0x0001fe
.config_2007_BUILD/DEFAULT/DEBUG/OBLIGATORIO        code   0x002007    program   0x000002
.config_2008_BUILD/DEFAULT/DEBUG/OBLIGATORIO        code   0x002008    program   0x000002
                    dbgD0      udata   0x000070       data   0x000001
                    dbgD1      udata   0x0000f0       data   0x000001
                    dbgD2      udata   0x000170       data   0x000001
                    dbgD3      udata   0x0001e5       data   0x00000b
                    dbgD4      udata   0x0001f0       data   0x000001



                              Program Memory Usage 
                               Start         End      
                           ---------   ---------      
                            0x000000    0x000002      
                            0x000004    0x00011a      
                            0x001f00    0x001ffe      
                            0x002007    0x002008      
            539 out of 8455 program addresses used, program memory utilization is 6%



                              Symbols - Sorted by Name
                     Name    Address   Location    Storage File                     
                ---------  ---------  ---------  --------- ---------                
             _.org_1_0031   0x000031    program     static C:\Users\bruno.masoller\MPLABXProjects\Obligatorio.X\Obligatorio - Parte 5 - Investigar el uso del LED RGB de la placa.asm
             _.org_1_0040   0x000040    program     static C:\Users\bruno.masoller\MPLABXProjects\Obligatorio.X\Obligatorio - Parte 5 - Investigar el uso del LED RGB de la placa.asm
             _.org_1_0057   0x000057    program     static C:\Users\bruno.masoller\MPLABXProjects\Obligatorio.X\Obligatorio - Parte 5 - Investigar el uso del LED RGB de la placa.asm
             _.org_1_0061   0x000061    program     static C:\Users\bruno.masoller\MPLABXProjects\Obligatorio.X\Obligatorio - Parte 5 - Investigar el uso del LED RGB de la placa.asm
             _.org_1_006B   0x00006b    program     static C:\Users\bruno.masoller\MPLABXProjects\Obligatorio.X\Obligatorio - Parte 5 - Investigar el uso del LED RGB de la placa.asm
             _.org_1_0074   0x000074    program     static C:\Users\bruno.masoller\MPLABXProjects\Obligatorio.X\Obligatorio - Parte 5 - Investigar el uso del LED RGB de la placa.asm
             _.org_1_0081   0x000081    program     static C:\Users\bruno.masoller\MPLABXProjects\Obligatorio.X\Obligatorio - Parte 5 - Investigar el uso del LED RGB de la placa.asm
             _.org_1_0088   0x000088    program     static C:\Users\bruno.masoller\MPLABXProjects\Obligatorio.X\Obligatorio - Parte 5 - Investigar el uso del LED RGB de la placa.asm
             _.org_1_008F   0x00008f    program     static C:\Users\bruno.masoller\MPLABXProjects\Obligatorio.X\Obligatorio - Parte 5 - Investigar el uso del LED RGB de la placa.asm
             _.org_1_0096   0x000096    program     static C:\Users\bruno.masoller\MPLABXProjects\Obligatorio.X\Obligatorio - Parte 5 - Investigar el uso del LED RGB de la placa.asm
             _.org_1_009E   0x00009e    program     static C:\Users\bruno.masoller\MPLABXProjects\Obligatorio.X\Obligatorio - Parte 5 - Investigar el uso del LED RGB de la placa.asm
             _.org_1_00C1   0x0000c1    program     static C:\Users\bruno.masoller\MPLABXProjects\Obligatorio.X\Obligatorio - Parte 5 - Investigar el uso del LED RGB de la placa.asm
             _.org_1_00C6   0x0000c6    program     static C:\Users\bruno.masoller\MPLABXProjects\Obligatorio.X\Obligatorio - Parte 5 - Investigar el uso del LED RGB de la placa.asm
             _.org_1_0101   0x000101    program     static C:\Users\bruno.masoller\MPLABXProjects\Obligatorio.X\Obligatorio - Parte 5 - Investigar el uso del LED RGB de la placa.asm
             _.org_1_0106   0x000106    program     static C:\Users\bruno.masoller\MPLABXProjects\Obligatorio.X\Obligatorio - Parte 5 - Investigar el uso del LED RGB de la placa.asm
          cargar_contexto   0x000114    program     static C:\Users\bruno.masoller\MPLABXProjects\Obligatorio.X\Obligatorio - Parte 5 - Investigar el uso del LED RGB de la placa.asm
    configuracion_inicial   0x00000c    program     static C:\Users\bruno.masoller\MPLABXProjects\Obligatorio.X\Obligatorio - Parte 5 - Investigar el uso del LED RGB de la placa.asm
                  dividir   0x0000ea    program     static C:\Users\bruno.masoller\MPLABXProjects\Obligatorio.X\Obligatorio - Parte 5 - Investigar el uso del LED RGB de la placa.asm
           encender_rgb_1   0x00002a    program     static C:\Users\bruno.masoller\MPLABXProjects\Obligatorio.X\Obligatorio - Parte 5 - Investigar el uso del LED RGB de la placa.asm
           encender_rgb_2   0x000039    program     static C:\Users\bruno.masoller\MPLABXProjects\Obligatorio.X\Obligatorio - Parte 5 - Investigar el uso del LED RGB de la placa.asm
           encender_rgb_3   0x000048    program     static C:\Users\bruno.masoller\MPLABXProjects\Obligatorio.X\Obligatorio - Parte 5 - Investigar el uso del LED RGB de la placa.asm
encender_unicamente_amarillo   0x0000ac    program     static C:\Users\bruno.masoller\MPLABXProjects\Obligatorio.X\Obligatorio - Parte 5 - Investigar el uso del LED RGB de la placa.asm
 encender_unicamente_azul   0x0000a8    program     static C:\Users\bruno.masoller\MPLABXProjects\Obligatorio.X\Obligatorio - Parte 5 - Investigar el uso del LED RGB de la placa.asm
 encender_unicamente_rojo   0x0000a4    program     static C:\Users\bruno.masoller\MPLABXProjects\Obligatorio.X\Obligatorio - Parte 5 - Investigar el uso del LED RGB de la placa.asm
encender_unicamente_verde   0x0000a0    program     static C:\Users\bruno.masoller\MPLABXProjects\Obligatorio.X\Obligatorio - Parte 5 - Investigar el uso del LED RGB de la placa.asm
                  esperar   0x00009a    program     static C:\Users\bruno.masoller\MPLABXProjects\Obligatorio.X\Obligatorio - Parte 5 - Investigar el uso del LED RGB de la placa.asm
         guardar_contexto   0x00010e    program     static C:\Users\bruno.masoller\MPLABXProjects\Obligatorio.X\Obligatorio - Parte 5 - Investigar el uso del LED RGB de la placa.asm
                interrupt   0x000009    program     static C:\Users\bruno.masoller\MPLABXProjects\Obligatorio.X\Obligatorio - Parte 5 - Investigar el uso del LED RGB de la placa.asm
             loop_dividir   0x0000ef    program     static C:\Users\bruno.masoller\MPLABXProjects\Obligatorio.X\Obligatorio - Parte 5 - Investigar el uso del LED RGB de la placa.asm
                     main   0x000005    program     static C:\Users\bruno.masoller\MPLABXProjects\Obligatorio.X\Obligatorio - Parte 5 - Investigar el uso del LED RGB de la placa.asm
                 mainloop   0x000006    program     static C:\Users\bruno.masoller\MPLABXProjects\Obligatorio.X\Obligatorio - Parte 5 - Investigar el uso del LED RGB de la placa.asm
              multiplicar   0x0000d3    program     static C:\Users\bruno.masoller\MPLABXProjects\Obligatorio.X\Obligatorio - Parte 5 - Investigar el uso del LED RGB de la placa.asm
         multiplicar_loop   0x0000df    program     static C:\Users\bruno.masoller\MPLABXProjects\Obligatorio.X\Obligatorio - Parte 5 - Investigar el uso del LED RGB de la placa.asm
              obtener_rgb   0x00004b    program     static C:\Users\bruno.masoller\MPLABXProjects\Obligatorio.X\Obligatorio - Parte 5 - Investigar el uso del LED RGB de la placa.asm
      parpadear_luces_rgb   0x000084    program     static C:\Users\bruno.masoller\MPLABXProjects\Obligatorio.X\Obligatorio - Parte 5 - Investigar el uso del LED RGB de la placa.asm
      realizar_conversion   0x000104    program     static C:\Users\bruno.masoller\MPLABXProjects\Obligatorio.X\Obligatorio - Parte 5 - Investigar el uso del LED RGB de la placa.asm
            regla_de_tres   0x0000b6    program     static C:\Users\bruno.masoller\MPLABXProjects\Obligatorio.X\Obligatorio - Parte 5 - Investigar el uso del LED RGB de la placa.asm
           restar_dividir   0x0000fb    program     static C:\Users\bruno.masoller\MPLABXProjects\Obligatorio.X\Obligatorio - Parte 5 - Investigar el uso del LED RGB de la placa.asm



                              Symbols - Sorted by Address
                     Name    Address   Location    Storage File                     
                ---------  ---------  ---------  --------- ---------                
                     main   0x000005    program     static C:\Users\bruno.masoller\MPLABXProjects\Obligatorio.X\Obligatorio - Parte 5 - Investigar el uso del LED RGB de la placa.asm
                 mainloop   0x000006    program     static C:\Users\bruno.masoller\MPLABXProjects\Obligatorio.X\Obligatorio - Parte 5 - Investigar el uso del LED RGB de la placa.asm
                interrupt   0x000009    program     static C:\Users\bruno.masoller\MPLABXProjects\Obligatorio.X\Obligatorio - Parte 5 - Investigar el uso del LED RGB de la placa.asm
    configuracion_inicial   0x00000c    program     static C:\Users\bruno.masoller\MPLABXProjects\Obligatorio.X\Obligatorio - Parte 5 - Investigar el uso del LED RGB de la placa.asm
           encender_rgb_1   0x00002a    program     static C:\Users\bruno.masoller\MPLABXProjects\Obligatorio.X\Obligatorio - Parte 5 - Investigar el uso del LED RGB de la placa.asm
             _.org_1_0031   0x000031    program     static C:\Users\bruno.masoller\MPLABXProjects\Obligatorio.X\Obligatorio - Parte 5 - Investigar el uso del LED RGB de la placa.asm
           encender_rgb_2   0x000039    program     static C:\Users\bruno.masoller\MPLABXProjects\Obligatorio.X\Obligatorio - Parte 5 - Investigar el uso del LED RGB de la placa.asm
             _.org_1_0040   0x000040    program     static C:\Users\bruno.masoller\MPLABXProjects\Obligatorio.X\Obligatorio - Parte 5 - Investigar el uso del LED RGB de la placa.asm
           encender_rgb_3   0x000048    program     static C:\Users\bruno.masoller\MPLABXProjects\Obligatorio.X\Obligatorio - Parte 5 - Investigar el uso del LED RGB de la placa.asm
              obtener_rgb   0x00004b    program     static C:\Users\bruno.masoller\MPLABXProjects\Obligatorio.X\Obligatorio - Parte 5 - Investigar el uso del LED RGB de la placa.asm
             _.org_1_0057   0x000057    program     static C:\Users\bruno.masoller\MPLABXProjects\Obligatorio.X\Obligatorio - Parte 5 - Investigar el uso del LED RGB de la placa.asm
             _.org_1_0061   0x000061    program     static C:\Users\bruno.masoller\MPLABXProjects\Obligatorio.X\Obligatorio - Parte 5 - Investigar el uso del LED RGB de la placa.asm
             _.org_1_006B   0x00006b    program     static C:\Users\bruno.masoller\MPLABXProjects\Obligatorio.X\Obligatorio - Parte 5 - Investigar el uso del LED RGB de la placa.asm
             _.org_1_0074   0x000074    program     static C:\Users\bruno.masoller\MPLABXProjects\Obligatorio.X\Obligatorio - Parte 5 - Investigar el uso del LED RGB de la placa.asm
             _.org_1_0081   0x000081    program     static C:\Users\bruno.masoller\MPLABXProjects\Obligatorio.X\Obligatorio - Parte 5 - Investigar el uso del LED RGB de la placa.asm
      parpadear_luces_rgb   0x000084    program     static C:\Users\bruno.masoller\MPLABXProjects\Obligatorio.X\Obligatorio - Parte 5 - Investigar el uso del LED RGB de la placa.asm
             _.org_1_0088   0x000088    program     static C:\Users\bruno.masoller\MPLABXProjects\Obligatorio.X\Obligatorio - Parte 5 - Investigar el uso del LED RGB de la placa.asm
             _.org_1_008F   0x00008f    program     static C:\Users\bruno.masoller\MPLABXProjects\Obligatorio.X\Obligatorio - Parte 5 - Investigar el uso del LED RGB de la placa.asm
             _.org_1_0096   0x000096    program     static C:\Users\bruno.masoller\MPLABXProjects\Obligatorio.X\Obligatorio - Parte 5 - Investigar el uso del LED RGB de la placa.asm
                  esperar   0x00009a    program     static C:\Users\bruno.masoller\MPLABXProjects\Obligatorio.X\Obligatorio - Parte 5 - Investigar el uso del LED RGB de la placa.asm
             _.org_1_009E   0x00009e    program     static C:\Users\bruno.masoller\MPLABXProjects\Obligatorio.X\Obligatorio - Parte 5 - Investigar el uso del LED RGB de la placa.asm
encender_unicamente_verde   0x0000a0    program     static C:\Users\bruno.masoller\MPLABXProjects\Obligatorio.X\Obligatorio - Parte 5 - Investigar el uso del LED RGB de la placa.asm
 encender_unicamente_rojo   0x0000a4    program     static C:\Users\bruno.masoller\MPLABXProjects\Obligatorio.X\Obligatorio - Parte 5 - Investigar el uso del LED RGB de la placa.asm
 encender_unicamente_azul   0x0000a8    program     static C:\Users\bruno.masoller\MPLABXProjects\Obligatorio.X\Obligatorio - Parte 5 - Investigar el uso del LED RGB de la placa.asm
encender_unicamente_amarillo   0x0000ac    program     static C:\Users\bruno.masoller\MPLABXProjects\Obligatorio.X\Obligatorio - Parte 5 - Investigar el uso del LED RGB de la placa.asm
            regla_de_tres   0x0000b6    program     static C:\Users\bruno.masoller\MPLABXProjects\Obligatorio.X\Obligatorio - Parte 5 - Investigar el uso del LED RGB de la placa.asm
             _.org_1_00C1   0x0000c1    program     static C:\Users\bruno.masoller\MPLABXProjects\Obligatorio.X\Obligatorio - Parte 5 - Investigar el uso del LED RGB de la placa.asm
             _.org_1_00C6   0x0000c6    program     static C:\Users\bruno.masoller\MPLABXProjects\Obligatorio.X\Obligatorio - Parte 5 - Investigar el uso del LED RGB de la placa.asm
              multiplicar   0x0000d3    program     static C:\Users\bruno.masoller\MPLABXProjects\Obligatorio.X\Obligatorio - Parte 5 - Investigar el uso del LED RGB de la placa.asm
         multiplicar_loop   0x0000df    program     static C:\Users\bruno.masoller\MPLABXProjects\Obligatorio.X\Obligatorio - Parte 5 - Investigar el uso del LED RGB de la placa.asm
                  dividir   0x0000ea    program     static C:\Users\bruno.masoller\MPLABXProjects\Obligatorio.X\Obligatorio - Parte 5 - Investigar el uso del LED RGB de la placa.asm
             loop_dividir   0x0000ef    program     static C:\Users\bruno.masoller\MPLABXProjects\Obligatorio.X\Obligatorio - Parte 5 - Investigar el uso del LED RGB de la placa.asm
           restar_dividir   0x0000fb    program     static C:\Users\bruno.masoller\MPLABXProjects\Obligatorio.X\Obligatorio - Parte 5 - Investigar el uso del LED RGB de la placa.asm
             _.org_1_0101   0x000101    program     static C:\Users\bruno.masoller\MPLABXProjects\Obligatorio.X\Obligatorio - Parte 5 - Investigar el uso del LED RGB de la placa.asm
      realizar_conversion   0x000104    program     static C:\Users\bruno.masoller\MPLABXProjects\Obligatorio.X\Obligatorio - Parte 5 - Investigar el uso del LED RGB de la placa.asm
             _.org_1_0106   0x000106    program     static C:\Users\bruno.masoller\MPLABXProjects\Obligatorio.X\Obligatorio - Parte 5 - Investigar el uso del LED RGB de la placa.asm
         guardar_contexto   0x00010e    program     static C:\Users\bruno.masoller\MPLABXProjects\Obligatorio.X\Obligatorio - Parte 5 - Investigar el uso del LED RGB de la placa.asm
          cargar_contexto   0x000114    program     static C:\Users\bruno.masoller\MPLABXProjects\Obligatorio.X\Obligatorio - Parte 5 - Investigar el uso del LED RGB de la placa.asm


