MPLINK 5.09, LINKER
Linker Map File - Created Fri Nov 22 14:07:49 2019

                                 Section Info
                  Section       Type    Address   Location Size(Bytes)
                ---------  ---------  ---------  ---------  ---------
                   .org_0       code   0x000000    program   0x000002
                   .cinit    romdata   0x000001    program   0x000004
                   .org_1       code   0x000004    program   0x00028a
                    dbgP0       code   0x001f00    program   0x0001fe
.config_2007_BUILD/DEFAULT/DEBUG/OBLIGATORIO        code   0x002007    program   0x000002
.config_2008_BUILD/DEFAULT/DEBUG/OBLIGATORIO        code   0x002008    program   0x000002
                    dbgD0      udata   0x000070       data   0x000001
                    dbgD1      udata   0x0000f0       data   0x000001
                    dbgD2      udata   0x000170       data   0x000001
                    dbgD3      udata   0x0001e5       data   0x00000b
                    dbgD4      udata   0x0001f0       data   0x000001



                              Program Memory Usage 
                               Start         End      
                           ---------   ---------      
                            0x000000    0x000002      
                            0x000004    0x000148      
                            0x001f00    0x001ffe      
                            0x002007    0x002008      
            585 out of 8455 program addresses used, program memory utilization is 6%



                              Symbols - Sorted by Name
                     Name    Address   Location    Storage File                     
                ---------  ---------  ---------  --------- ---------                
             _.org_1_003C   0x00003c    program     static C:\Users\bruno.masoller\MPLABXProjects\Obligatorio.X\Obligatorio - Parte4 - Normalizacion de temperatura - SIN INTERRUPCIONES.asm
             _.org_1_0071   0x000071    program     static C:\Users\bruno.masoller\MPLABXProjects\Obligatorio.X\Obligatorio - Parte4 - Normalizacion de temperatura - SIN INTERRUPCIONES.asm
             _.org_1_00B1   0x0000b1    program     static C:\Users\bruno.masoller\MPLABXProjects\Obligatorio.X\Obligatorio - Parte4 - Normalizacion de temperatura - SIN INTERRUPCIONES.asm
             _.org_1_00B6   0x0000b6    program     static C:\Users\bruno.masoller\MPLABXProjects\Obligatorio.X\Obligatorio - Parte4 - Normalizacion de temperatura - SIN INTERRUPCIONES.asm
             _.org_1_00F1   0x0000f1    program     static C:\Users\bruno.masoller\MPLABXProjects\Obligatorio.X\Obligatorio - Parte4 - Normalizacion de temperatura - SIN INTERRUPCIONES.asm
             _.org_1_0127   0x000127    program     static C:\Users\bruno.masoller\MPLABXProjects\Obligatorio.X\Obligatorio - Parte4 - Normalizacion de temperatura - SIN INTERRUPCIONES.asm
          cargar_contexto   0x00013b    program     static C:\Users\bruno.masoller\MPLABXProjects\Obligatorio.X\Obligatorio - Parte4 - Normalizacion de temperatura - SIN INTERRUPCIONES.asm
     cargar_contexto_case   0x000142    program     static C:\Users\bruno.masoller\MPLABXProjects\Obligatorio.X\Obligatorio - Parte4 - Normalizacion de temperatura - SIN INTERRUPCIONES.asm
              case_letras   0x000045    program     static C:\Users\bruno.masoller\MPLABXProjects\Obligatorio.X\Obligatorio - Parte4 - Normalizacion de temperatura - SIN INTERRUPCIONES.asm
    configuracion_inicial   0x00000c    program     static C:\Users\bruno.masoller\MPLABXProjects\Obligatorio.X\Obligatorio - Parte4 - Normalizacion de temperatura - SIN INTERRUPCIONES.asm
      convertir_dec_ascii   0x000102    program     static C:\Users\bruno.masoller\MPLABXProjects\Obligatorio.X\Obligatorio - Parte4 - Normalizacion de temperatura - SIN INTERRUPCIONES.asm
      convertir_valor_dec   0x000117    program     static C:\Users\bruno.masoller\MPLABXProjects\Obligatorio.X\Obligatorio - Parte4 - Normalizacion de temperatura - SIN INTERRUPCIONES.asm
                  dividir   0x0000da    program     static C:\Users\bruno.masoller\MPLABXProjects\Obligatorio.X\Obligatorio - Parte4 - Normalizacion de temperatura - SIN INTERRUPCIONES.asm
enviar_conversion_usart_dec   0x000092    program     static C:\Users\bruno.masoller\MPLABXProjects\Obligatorio.X\Obligatorio - Parte4 - Normalizacion de temperatura - SIN INTERRUPCIONES.asm
enviar_conversion_usart_hexa   0x000053    program     static C:\Users\bruno.masoller\MPLABXProjects\Obligatorio.X\Obligatorio - Parte4 - Normalizacion de temperatura - SIN INTERRUPCIONES.asm
                 enviar_w   0x00006e    program     static C:\Users\bruno.masoller\MPLABXProjects\Obligatorio.X\Obligatorio - Parte4 - Normalizacion de temperatura - SIN INTERRUPCIONES.asm
         guardar_contexto   0x00012f    program     static C:\Users\bruno.masoller\MPLABXProjects\Obligatorio.X\Obligatorio - Parte4 - Normalizacion de temperatura - SIN INTERRUPCIONES.asm
    guardar_contexto_case   0x000135    program     static C:\Users\bruno.masoller\MPLABXProjects\Obligatorio.X\Obligatorio - Parte4 - Normalizacion de temperatura - SIN INTERRUPCIONES.asm
                interrupt   0x000009    program     static C:\Users\bruno.masoller\MPLABXProjects\Obligatorio.X\Obligatorio - Parte4 - Normalizacion de temperatura - SIN INTERRUPCIONES.asm
          interrupt_usart   0x000040    program     static C:\Users\bruno.masoller\MPLABXProjects\Obligatorio.X\Obligatorio - Parte4 - Normalizacion de temperatura - SIN INTERRUPCIONES.asm
               leer_usart   0x000039    program     static C:\Users\bruno.masoller\MPLABXProjects\Obligatorio.X\Obligatorio - Parte4 - Normalizacion de temperatura - SIN INTERRUPCIONES.asm
             loop_dividir   0x0000df    program     static C:\Users\bruno.masoller\MPLABXProjects\Obligatorio.X\Obligatorio - Parte4 - Normalizacion de temperatura - SIN INTERRUPCIONES.asm
                     main   0x000005    program     static C:\Users\bruno.masoller\MPLABXProjects\Obligatorio.X\Obligatorio - Parte4 - Normalizacion de temperatura - SIN INTERRUPCIONES.asm
                 mainloop   0x000006    program     static C:\Users\bruno.masoller\MPLABXProjects\Obligatorio.X\Obligatorio - Parte4 - Normalizacion de temperatura - SIN INTERRUPCIONES.asm
        mapear_enviar_dec   0x0000f4    program     static C:\Users\bruno.masoller\MPLABXProjects\Obligatorio.X\Obligatorio - Parte4 - Normalizacion de temperatura - SIN INTERRUPCIONES.asm
       mapear_enviar_hexa   0x00006b    program     static C:\Users\bruno.masoller\MPLABXProjects\Obligatorio.X\Obligatorio - Parte4 - Normalizacion de temperatura - SIN INTERRUPCIONES.asm
              mapear_hexa   0x000076    program     static C:\Users\bruno.masoller\MPLABXProjects\Obligatorio.X\Obligatorio - Parte4 - Normalizacion de temperatura - SIN INTERRUPCIONES.asm
              multiplicar   0x0000c3    program     static C:\Users\bruno.masoller\MPLABXProjects\Obligatorio.X\Obligatorio - Parte4 - Normalizacion de temperatura - SIN INTERRUPCIONES.asm
         multiplicar_loop   0x0000cf    program     static C:\Users\bruno.masoller\MPLABXProjects\Obligatorio.X\Obligatorio - Parte4 - Normalizacion de temperatura - SIN INTERRUPCIONES.asm
      realizar_conversion   0x000125    program     static C:\Users\bruno.masoller\MPLABXProjects\Obligatorio.X\Obligatorio - Parte4 - Normalizacion de temperatura - SIN INTERRUPCIONES.asm
            regla_de_tres   0x0000a6    program     static C:\Users\bruno.masoller\MPLABXProjects\Obligatorio.X\Obligatorio - Parte4 - Normalizacion de temperatura - SIN INTERRUPCIONES.asm
           restar_dividir   0x0000eb    program     static C:\Users\bruno.masoller\MPLABXProjects\Obligatorio.X\Obligatorio - Parte4 - Normalizacion de temperatura - SIN INTERRUPCIONES.asm
           rutina_letra_A   0x00004c    program     static C:\Users\bruno.masoller\MPLABXProjects\Obligatorio.X\Obligatorio - Parte4 - Normalizacion de temperatura - SIN INTERRUPCIONES.asm
           rutina_letra_a   0x000087    program     static C:\Users\bruno.masoller\MPLABXProjects\Obligatorio.X\Obligatorio - Parte4 - Normalizacion de temperatura - SIN INTERRUPCIONES.asm
                 sumar_30   0x00007d    program     static C:\Users\bruno.masoller\MPLABXProjects\Obligatorio.X\Obligatorio - Parte4 - Normalizacion de temperatura - SIN INTERRUPCIONES.asm
                 sumar_37   0x000082    program     static C:\Users\bruno.masoller\MPLABXProjects\Obligatorio.X\Obligatorio - Parte4 - Normalizacion de temperatura - SIN INTERRUPCIONES.asm



                              Symbols - Sorted by Address
                     Name    Address   Location    Storage File                     
                ---------  ---------  ---------  --------- ---------                
                     main   0x000005    program     static C:\Users\bruno.masoller\MPLABXProjects\Obligatorio.X\Obligatorio - Parte4 - Normalizacion de temperatura - SIN INTERRUPCIONES.asm
                 mainloop   0x000006    program     static C:\Users\bruno.masoller\MPLABXProjects\Obligatorio.X\Obligatorio - Parte4 - Normalizacion de temperatura - SIN INTERRUPCIONES.asm
                interrupt   0x000009    program     static C:\Users\bruno.masoller\MPLABXProjects\Obligatorio.X\Obligatorio - Parte4 - Normalizacion de temperatura - SIN INTERRUPCIONES.asm
    configuracion_inicial   0x00000c    program     static C:\Users\bruno.masoller\MPLABXProjects\Obligatorio.X\Obligatorio - Parte4 - Normalizacion de temperatura - SIN INTERRUPCIONES.asm
               leer_usart   0x000039    program     static C:\Users\bruno.masoller\MPLABXProjects\Obligatorio.X\Obligatorio - Parte4 - Normalizacion de temperatura - SIN INTERRUPCIONES.asm
             _.org_1_003C   0x00003c    program     static C:\Users\bruno.masoller\MPLABXProjects\Obligatorio.X\Obligatorio - Parte4 - Normalizacion de temperatura - SIN INTERRUPCIONES.asm
          interrupt_usart   0x000040    program     static C:\Users\bruno.masoller\MPLABXProjects\Obligatorio.X\Obligatorio - Parte4 - Normalizacion de temperatura - SIN INTERRUPCIONES.asm
              case_letras   0x000045    program     static C:\Users\bruno.masoller\MPLABXProjects\Obligatorio.X\Obligatorio - Parte4 - Normalizacion de temperatura - SIN INTERRUPCIONES.asm
           rutina_letra_A   0x00004c    program     static C:\Users\bruno.masoller\MPLABXProjects\Obligatorio.X\Obligatorio - Parte4 - Normalizacion de temperatura - SIN INTERRUPCIONES.asm
enviar_conversion_usart_hexa   0x000053    program     static C:\Users\bruno.masoller\MPLABXProjects\Obligatorio.X\Obligatorio - Parte4 - Normalizacion de temperatura - SIN INTERRUPCIONES.asm
       mapear_enviar_hexa   0x00006b    program     static C:\Users\bruno.masoller\MPLABXProjects\Obligatorio.X\Obligatorio - Parte4 - Normalizacion de temperatura - SIN INTERRUPCIONES.asm
                 enviar_w   0x00006e    program     static C:\Users\bruno.masoller\MPLABXProjects\Obligatorio.X\Obligatorio - Parte4 - Normalizacion de temperatura - SIN INTERRUPCIONES.asm
             _.org_1_0071   0x000071    program     static C:\Users\bruno.masoller\MPLABXProjects\Obligatorio.X\Obligatorio - Parte4 - Normalizacion de temperatura - SIN INTERRUPCIONES.asm
              mapear_hexa   0x000076    program     static C:\Users\bruno.masoller\MPLABXProjects\Obligatorio.X\Obligatorio - Parte4 - Normalizacion de temperatura - SIN INTERRUPCIONES.asm
                 sumar_30   0x00007d    program     static C:\Users\bruno.masoller\MPLABXProjects\Obligatorio.X\Obligatorio - Parte4 - Normalizacion de temperatura - SIN INTERRUPCIONES.asm
                 sumar_37   0x000082    program     static C:\Users\bruno.masoller\MPLABXProjects\Obligatorio.X\Obligatorio - Parte4 - Normalizacion de temperatura - SIN INTERRUPCIONES.asm
           rutina_letra_a   0x000087    program     static C:\Users\bruno.masoller\MPLABXProjects\Obligatorio.X\Obligatorio - Parte4 - Normalizacion de temperatura - SIN INTERRUPCIONES.asm
enviar_conversion_usart_dec   0x000092    program     static C:\Users\bruno.masoller\MPLABXProjects\Obligatorio.X\Obligatorio - Parte4 - Normalizacion de temperatura - SIN INTERRUPCIONES.asm
            regla_de_tres   0x0000a6    program     static C:\Users\bruno.masoller\MPLABXProjects\Obligatorio.X\Obligatorio - Parte4 - Normalizacion de temperatura - SIN INTERRUPCIONES.asm
             _.org_1_00B1   0x0000b1    program     static C:\Users\bruno.masoller\MPLABXProjects\Obligatorio.X\Obligatorio - Parte4 - Normalizacion de temperatura - SIN INTERRUPCIONES.asm
             _.org_1_00B6   0x0000b6    program     static C:\Users\bruno.masoller\MPLABXProjects\Obligatorio.X\Obligatorio - Parte4 - Normalizacion de temperatura - SIN INTERRUPCIONES.asm
              multiplicar   0x0000c3    program     static C:\Users\bruno.masoller\MPLABXProjects\Obligatorio.X\Obligatorio - Parte4 - Normalizacion de temperatura - SIN INTERRUPCIONES.asm
         multiplicar_loop   0x0000cf    program     static C:\Users\bruno.masoller\MPLABXProjects\Obligatorio.X\Obligatorio - Parte4 - Normalizacion de temperatura - SIN INTERRUPCIONES.asm
                  dividir   0x0000da    program     static C:\Users\bruno.masoller\MPLABXProjects\Obligatorio.X\Obligatorio - Parte4 - Normalizacion de temperatura - SIN INTERRUPCIONES.asm
             loop_dividir   0x0000df    program     static C:\Users\bruno.masoller\MPLABXProjects\Obligatorio.X\Obligatorio - Parte4 - Normalizacion de temperatura - SIN INTERRUPCIONES.asm
           restar_dividir   0x0000eb    program     static C:\Users\bruno.masoller\MPLABXProjects\Obligatorio.X\Obligatorio - Parte4 - Normalizacion de temperatura - SIN INTERRUPCIONES.asm
             _.org_1_00F1   0x0000f1    program     static C:\Users\bruno.masoller\MPLABXProjects\Obligatorio.X\Obligatorio - Parte4 - Normalizacion de temperatura - SIN INTERRUPCIONES.asm
        mapear_enviar_dec   0x0000f4    program     static C:\Users\bruno.masoller\MPLABXProjects\Obligatorio.X\Obligatorio - Parte4 - Normalizacion de temperatura - SIN INTERRUPCIONES.asm
      convertir_dec_ascii   0x000102    program     static C:\Users\bruno.masoller\MPLABXProjects\Obligatorio.X\Obligatorio - Parte4 - Normalizacion de temperatura - SIN INTERRUPCIONES.asm
      convertir_valor_dec   0x000117    program     static C:\Users\bruno.masoller\MPLABXProjects\Obligatorio.X\Obligatorio - Parte4 - Normalizacion de temperatura - SIN INTERRUPCIONES.asm
      realizar_conversion   0x000125    program     static C:\Users\bruno.masoller\MPLABXProjects\Obligatorio.X\Obligatorio - Parte4 - Normalizacion de temperatura - SIN INTERRUPCIONES.asm
             _.org_1_0127   0x000127    program     static C:\Users\bruno.masoller\MPLABXProjects\Obligatorio.X\Obligatorio - Parte4 - Normalizacion de temperatura - SIN INTERRUPCIONES.asm
         guardar_contexto   0x00012f    program     static C:\Users\bruno.masoller\MPLABXProjects\Obligatorio.X\Obligatorio - Parte4 - Normalizacion de temperatura - SIN INTERRUPCIONES.asm
    guardar_contexto_case   0x000135    program     static C:\Users\bruno.masoller\MPLABXProjects\Obligatorio.X\Obligatorio - Parte4 - Normalizacion de temperatura - SIN INTERRUPCIONES.asm
          cargar_contexto   0x00013b    program     static C:\Users\bruno.masoller\MPLABXProjects\Obligatorio.X\Obligatorio - Parte4 - Normalizacion de temperatura - SIN INTERRUPCIONES.asm
     cargar_contexto_case   0x000142    program     static C:\Users\bruno.masoller\MPLABXProjects\Obligatorio.X\Obligatorio - Parte4 - Normalizacion de temperatura - SIN INTERRUPCIONES.asm


